; Function Attrs: nounwind uwtable
define hidden i32 @mbedtls_ecp_set_zero(ptr noundef %0) local_unnamed_addr #7 {
  %2 = tail call i32 @mbedtls_mpi_lset(ptr noundef %0, i64 noundef 1) #21
  %.not = icmp eq i32 %2, 0
  br i1 %.not, label %3, label %9

3:                                                ; preds = %1
  %4 = getelementptr inbounds nuw i8, ptr %0, i64 16
  %5 = tail call i32 @mbedtls_mpi_lset(ptr noundef nonnull %4, i64 noundef 1) #21
  %.not5 = icmp eq i32 %5, 0
  br i1 %.not5, label %6, label %9

6:                                                ; preds = %3
  %7 = getelementptr inbounds nuw i8, ptr %0, i64 32
  %8 = tail call i32 @mbedtls_mpi_lset(ptr noundef nonnull %7, i64 noundef 0) #21
  br label %9

9:                                                ; preds = %6, %3, %1
  %.0 = phi i32 [ %2, %1 ], [ %5, %3 ], [ %8, %6 ]
  ret i32 %.0
}